target datalayout = "e-m:e-p270:32:32-p271:32:32-p272:64:64-i64:64-i128:128-f80:128-n8:16:32:64-S128"
target triple = "x86_64-pc-linux-gnu"

%union.pthread_mutex_t = type { %struct.__pthread_mutex_s }
%struct.__pthread_mutex_s = type { i32, i32, i32, i32, i32, i16, i16, %struct.__pthread_internal_list }
%struct.__pthread_internal_list = type { ptr, ptr }
%struct.slurmdb_cluster_rec = type { ptr, i16, i64, %struct.sockaddr_storage, ptr, i32, i16, ptr, i16, %struct.slurmdb_cluster_fed_t, i32, %union.pthread_mutex_t, ptr, ptr, ptr, i16, ptr, ptr }
%struct.sockaddr_storage = type { i16, [118 x i8], i64 }
%struct.slurmdb_cluster_fed_t = type { ptr, i32, ptr, ptr, ptr, i32, i8, i8 }
%struct.slurm_msg = type { %struct.sockaddr_storage, ptr, i32, i32, i32, i8, i32, i8, i32, ptr, ptr, i32, ptr, ptr, i16, i8, i16, i16, %struct.forward, ptr, %struct.sockaddr_storage, ptr }
%struct.forward = type { %struct.slurm_node_alias_addrs_t, i16, i16, ptr, i32, i16, i16 }
%struct.slurm_node_alias_addrs_t = type { i64, ptr, ptr, i32, ptr }
%struct.sib_msg_t = type { i32, ptr, ptr, i32, i16, i16, i64, i32, i32, i32, i32, i64, ptr, i32, i16, ptr, i16, i32 }
%struct.job_step_kill_msg = type { ptr, i16, i16, ptr, %struct.slurm_step_id_msg }
%struct.slurm_step_id_msg = type { i64, i32, i32, i32 }

; Function Attrs: nounwind uwtable
define internal i32 @_persist_fed_job_cancel(ptr noundef %0, i32 noundef %1, i16 noundef zeroext %2, i16 noundef zeroext %3, i32 noundef %4) #0 {
  %6 = alloca ptr, align 8
  %7 = alloca i32, align 4
  %8 = alloca i16, align 2
  %9 = alloca i16, align 2
  %10 = alloca i32, align 4
  %11 = alloca i32, align 4
  %12 = alloca %struct.slurm_msg, align 8
  %13 = alloca %struct.slurm_msg, align 8
  %14 = alloca %struct.sib_msg_t, align 8
  %15 = alloca %struct.job_step_kill_msg, align 8
  %16 = alloca ptr, align 8
  store ptr %0, ptr %6, align 8
  store i32 %1, ptr %7, align 4
  store i16 %2, ptr %8, align 2
  store i16 %3, ptr %9, align 2
  store i32 %4, ptr %10, align 4
  call void @llvm.lifetime.start.p0(i64 4, ptr %11) #9
  store i32 0, ptr %11, align 4
  call void @llvm.lifetime.start.p0(i64 424, ptr %12) #9
  call void @llvm.lifetime.start.p0(i64 424, ptr %13) #9
  call void @llvm.lifetime.start.p0(i64 96, ptr %14) #9
  call void @llvm.lifetime.start.p0(i64 48, ptr %15) #9
  call void @llvm.lifetime.start.p0(i64 8, ptr %16) #9
  call void @llvm.memset.p0.i64(ptr align 8 %15, i8 0, i64 48, i1 false)
  %17 = load i32, ptr %7, align 4
  %18 = getelementptr inbounds nuw %struct.job_step_kill_msg, ptr %15, i32 0, i32 4
  %19 = getelementptr inbounds nuw %struct.slurm_step_id_msg, ptr %18, i32 0, i32 1
  store i32 %17, ptr %19, align 8
  %20 = getelementptr inbounds nuw %struct.job_step_kill_msg, ptr %15, i32 0, i32 0
  store ptr null, ptr %20, align 8
  %21 = getelementptr inbounds nuw %struct.job_step_kill_msg, ptr %15, i32 0, i32 4
  %22 = getelementptr inbounds nuw %struct.slurm_step_id_msg, ptr %21, i32 0, i32 3
  store i32 -2, ptr %22, align 8
  %23 = getelementptr inbounds nuw %struct.job_step_kill_msg, ptr %15, i32 0, i32 4
  %24 = getelementptr inbounds nuw %struct.slurm_step_id_msg, ptr %23, i32 0, i32 2
  store i32 -2, ptr %24, align 4
  %25 = load i16, ptr %8, align 2
  %26 = getelementptr inbounds nuw %struct.job_step_kill_msg, ptr %15, i32 0, i32 1
  store i16 %25, ptr %26, align 8
  %27 = load i16, ptr %9, align 2
  %28 = getelementptr inbounds nuw %struct.job_step_kill_msg, ptr %15, i32 0, i32 2
  store i16 %27, ptr %28, align 2
  call void @slurm_msg_t_init(ptr noundef %13)
  %29 = getelementptr inbounds nuw %struct.slurm_msg, ptr %13, i32 0, i32 16
  store i16 5005, ptr %29, align 4
  %30 = getelementptr inbounds nuw %struct.slurm_msg, ptr %13, i32 0, i32 13
  store ptr %15, ptr %30, align 8
  %31 = load ptr, ptr %6, align 8
  %32 = getelementptr inbounds nuw %struct.slurmdb_cluster_rec, ptr %31, i32 0, i32 15
  %33 = load i16, ptr %32, align 8
  %34 = getelementptr inbounds nuw %struct.slurm_msg, ptr %13, i32 0, i32 17
  store i16 %33, ptr %34, align 2
  %35 = call ptr @init_buf(i32 noundef 16384)
  store ptr %35, ptr %16, align 8
  %36 = load ptr, ptr %16, align 8
  %37 = call i32 @pack_msg(ptr noundef %13, ptr noundef %36)
  call void @llvm.memset.p0.i64(ptr align 8 %14, i8 0, i64 96, i1 false)
  %38 = getelementptr inbounds nuw %struct.sib_msg_t, ptr %14, i32 0, i32 14
  store i16 1, ptr %38, align 4
  %39 = load ptr, ptr %16, align 8
  %40 = getelementptr inbounds nuw %struct.sib_msg_t, ptr %14, i32 0, i32 2
  store ptr %39, ptr %40, align 8
  %41 = getelementptr inbounds nuw %struct.slurm_msg, ptr %13, i32 0, i32 16
  %42 = load i16, ptr %41, align 4
  %43 = getelementptr inbounds nuw %struct.sib_msg_t, ptr %14, i32 0, i32 4
  store i16 %42, ptr %43, align 4
  %44 = getelementptr inbounds nuw %struct.slurm_msg, ptr %13, i32 0, i32 17
  %45 = load i16, ptr %44, align 2
  %46 = getelementptr inbounds nuw %struct.sib_msg_t, ptr %14, i32 0, i32 5
  store i16 %45, ptr %46, align 2
  %47 = load i32, ptr %10, align 4
  %48 = getelementptr inbounds nuw %struct.sib_msg_t, ptr %14, i32 0, i32 13
  store i32 %47, ptr %48, align 8
  call void @slurm_msg_t_init(ptr noundef %12)
  %49 = getelementptr inbounds nuw %struct.slurm_msg, ptr %12, i32 0, i32 16
  store i16 4502, ptr %49, align 4
  %50 = getelementptr inbounds nuw %struct.slurm_msg, ptr %13, i32 0, i32 17
  %51 = load i16, ptr %50, align 2
  %52 = getelementptr inbounds nuw %struct.slurm_msg, ptr %12, i32 0, i32 17
  store i16 %51, ptr %52, align 2
  %53 = getelementptr inbounds nuw %struct.slurm_msg, ptr %12, i32 0, i32 13
  store ptr %14, ptr %53, align 8
  %54 = load ptr, ptr %6, align 8
  %55 = load i32, ptr %7, align 4
  %56 = call i32 @_queue_rpc(ptr noundef %54, ptr noundef %12, i32 noundef %55, i1 noundef zeroext false)
  store i32 %56, ptr %11, align 4
  br label %57

57:                                               ; preds = %5
  %58 = load ptr, ptr %16, align 8
  %59 = icmp ne ptr %58, null
  br i1 %59, label %60, label %62

60:                                               ; preds = %57
  %61 = load ptr, ptr %16, align 8
  call void @free_buf(ptr noundef %61)
  br label %62

62:                                               ; preds = %60, %57
  store ptr null, ptr %16, align 8
  br label %63

63:                                               ; preds = %62
  br label %64

64:                                               ; preds = %63
  %65 = load i32, ptr %11, align 4
  call void @llvm.lifetime.end.p0(i64 8, ptr %16) #9
  call void @llvm.lifetime.end.p0(i64 48, ptr %15) #9
  call void @llvm.lifetime.end.p0(i64 96, ptr %14) #9
  call void @llvm.lifetime.end.p0(i64 424, ptr %13) #9
  call void @llvm.lifetime.end.p0(i64 424, ptr %12) #9
  call void @llvm.lifetime.end.p0(i64 4, ptr %11) #9
  ret i32 %65
}