; Function Attrs: nounwind uwtable
define internal fastcc range(i32 -1, 1) i32 @_persist_fed_job_cancel(ptr noundef nonnull captures(none) %0, i32 noundef %1, i16 noundef zeroext %2, i16 noundef zeroext %3, i32 noundef %4) unnamed_addr #0 {
  %6 = alloca %struct.slurm_msg, align 8
  %7 = alloca %struct.slurm_msg, align 8
  %8 = alloca %struct.sib_msg_t, align 8
  %9 = alloca %struct.job_step_kill_msg, align 8
  call void @llvm.lifetime.start.p0(i64 424, ptr nonnull %6) #16
  call void @llvm.lifetime.start.p0(i64 424, ptr nonnull %7) #16
  call void @llvm.lifetime.start.p0(i64 96, ptr nonnull %8) #16
  call void @llvm.lifetime.start.p0(i64 48, ptr nonnull %9) #16
  %10 = getelementptr inbounds nuw i8, ptr %9, i64 8
  call void @llvm.memset.p0.i64(ptr noundef nonnull align 8 dereferenceable(48) %10, i8 0, i64 40, i1 false)
  %11 = getelementptr inbounds nuw i8, ptr %9, i64 32
  store i32 %1, ptr %11, align 8
  store ptr null, ptr %9, align 8
  %12 = getelementptr inbounds nuw i8, ptr %9, i64 40
  store i32 -2, ptr %12, align 8
  %13 = getelementptr inbounds nuw i8, ptr %9, i64 36
  store i32 -2, ptr %13, align 4
  %14 = getelementptr inbounds nuw i8, ptr %9, i64 8
  store i16 %2, ptr %14, align 8
  %15 = getelementptr inbounds nuw i8, ptr %9, i64 10
  store i16 %3, ptr %15, align 2
  call void @slurm_msg_t_init(ptr noundef nonnull %7) #16
  %16 = getelementptr inbounds nuw i8, ptr %7, i64 212
  store i16 5005, ptr %16, align 4
  %17 = getelementptr inbounds nuw i8, ptr %7, i64 200
  store ptr %9, ptr %17, align 8
  %18 = getelementptr inbounds nuw i8, ptr %0, i64 304
  %19 = load i16, ptr %18, align 8
  %20 = getelementptr inbounds nuw i8, ptr %7, i64 214
  store i16 %19, ptr %20, align 2
  %21 = call ptr @init_buf(i32 noundef 16384) #16
  %22 = call i32 @pack_msg(ptr noundef nonnull %7, ptr noundef %21) #16
  call void @llvm.memset.p0.i64(ptr noundef nonnull align 8 dereferenceable(96) %8, i8 0, i64 96, i1 false)
  %23 = getelementptr inbounds nuw i8, ptr %8, i64 76
  store i16 1, ptr %23, align 4
  %24 = getelementptr inbounds nuw i8, ptr %8, i64 16
  store ptr %21, ptr %24, align 8
  %25 = load i16, ptr %16, align 4
  %26 = getelementptr inbounds nuw i8, ptr %8, i64 28
  store i16 %25, ptr %26, align 4
  %27 = load i16, ptr %20, align 2
  %28 = getelementptr inbounds nuw i8, ptr %8, i64 30
  store i16 %27, ptr %28, align 2
  %29 = getelementptr inbounds nuw i8, ptr %8, i64 72
  store i32 %4, ptr %29, align 8
  call void @slurm_msg_t_init(ptr noundef nonnull %6) #16
  %30 = getelementptr inbounds nuw i8, ptr %6, i64 212
  store i16 4502, ptr %30, align 4
  %31 = load i16, ptr %20, align 2
  %32 = getelementptr inbounds nuw i8, ptr %6, i64 214
  store i16 %31, ptr %32, align 2
  %33 = getelementptr inbounds nuw i8, ptr %6, i64 200
  store ptr %8, ptr %33, align 8
  %34 = call fastcc i32 @_queue_rpc(ptr noundef nonnull %0, ptr noundef %6, i32 noundef %1)
  %.not = icmp eq ptr %21, null
  br i1 %.not, label %36, label %35

35:                                               ; preds = %5
  call void @free_buf(ptr noundef nonnull %21) #16
  br label %36

36:                                               ; preds = %35, %5
  call void @llvm.lifetime.end.p0(i64 48, ptr nonnull %9) #16
  call void @llvm.lifetime.end.p0(i64 96, ptr nonnull %8) #16
  call void @llvm.lifetime.end.p0(i64 424, ptr nonnull %7) #16
  call void @llvm.lifetime.end.p0(i64 424, ptr nonnull %6) #16
  ret i32 %34
}